target datalayout = "e-m:e-p270:32:32-p271:32:32-p272:64:64-i64:64-i128:128-f80:128-n8:16:32:64-S128"
target triple = "x86_64-pc-linux-gnu"

%union.pthread_mutex_t = type { %struct.__pthread_mutex_s }
%struct.__pthread_mutex_s = type { i32, i32, i32, i32, i32, i16, i16, %struct.__pthread_internal_list }
%struct.__pthread_internal_list = type { ptr, ptr }
%"class.std::lock_guard" = type { ptr }
%struct.t_pstack = type { ptr, ptr }
%"class.std::__mutex_base" = type { %union.pthread_mutex_t }

@_ZL6pstack = internal global ptr null, align 8
@.str.1 = private unnamed_addr constant [3 x i8] c"ps\00", align 1
@.str.2 = private unnamed_addr constant [123 x i8] c"generated/home/dtcxzyw/WorkSpace/Projects/compilers/llvm-opt-benchmark/bench/gromacs/gromacs/src/gromacs/utility/futil.cpp\00", align 1
@.str.3 = private unnamed_addr constant [4 x i8] c"tmp\00", align 1
@_ZL12pstack_mutex = internal global { %union.pthread_mutex_t } zeroinitializer, align 8

; Function Attrs: inlinehint mustprogress nounwind uwtable
define internal noundef i32 @_ZL18__gthread_active_pv() #9 {
  ret i32 1
}

; Function Attrs: inlinehint mustprogress nounwind uwtable
define internal noundef i32 @_ZL22__gthread_mutex_unlockP15pthread_mutex_t(ptr noundef %0) #9 {
  %2 = alloca i32, align 4
  %3 = alloca ptr, align 8
  store ptr %0, ptr %3, align 8, !tbaa !30
  %4 = call noundef i32 @_ZL18__gthread_active_pv()
  %5 = icmp ne i32 %4, 0
  br i1 %5, label %6, label %9

6:                                                ; preds = %1
  %7 = load ptr, ptr %3, align 8, !tbaa !30
  %8 = call i32 @pthread_mutex_unlock(ptr noundef %7) #3
  store i32 %8, ptr %2, align 4
  br label %10

9:                                                ; preds = %1
  store i32 0, ptr %2, align 4
  br label %10

10:                                               ; preds = %9, %6
  %11 = load i32, ptr %2, align 4
  ret i32 %11
}

; Function Attrs: inlinehint mustprogress uwtable
define internal noundef i32 @_ZL20__gthread_mutex_lockP15pthread_mutex_t(ptr noundef %0) #7 {
  %2 = alloca i32, align 4
  %3 = alloca ptr, align 8
  store ptr %0, ptr %3, align 8, !tbaa !30
  %4 = call noundef i32 @_ZL18__gthread_active_pv()
  %5 = icmp ne i32 %4, 0
  br i1 %5, label %6, label %9

6:                                                ; preds = %1
  %7 = load ptr, ptr %3, align 8, !tbaa !30
  %8 = call i32 @pthread_mutex_lock(ptr noundef %7) #3
  store i32 %8, ptr %2, align 4
  br label %10

9:                                                ; preds = %1
  store i32 0, ptr %2, align 4
  br label %10

10:                                               ; preds = %9, %6
  %11 = load i32, ptr %2, align 4
  ret i32 %11
}

; Function Attrs: noinline noreturn nounwind uwtable
define linkonce_odr hidden void @__clang_call_terminate(ptr noundef %0) #10 comdat {
  %2 = call ptr @__cxa_begin_catch(ptr %0) #3
  call void @_ZSt9terminatev() #21
  unreachable
}

; Function Attrs: mustprogress uwtable
define linkonce_odr void @_ZNSt5mutex6unlockEv(ptr noundef nonnull align 8 dereferenceable(40) %0) #6 comdat align 2 {
  %2 = alloca ptr, align 8
  store ptr %0, ptr %2, align 8, !tbaa !26
  %3 = load ptr, ptr %2, align 8
  %4 = getelementptr inbounds nuw %"class.std::__mutex_base", ptr %3, i32 0, i32 0
  %5 = call noundef i32 @_ZL22__gthread_mutex_unlockP15pthread_mutex_t(ptr noundef %4)
  ret void
}

; Function Attrs: mustprogress uwtable
define linkonce_odr void @_ZNSt5mutex4lockEv(ptr noundef nonnull align 8 dereferenceable(40) %0) #6 comdat align 2 {
  %2 = alloca ptr, align 8
  %3 = alloca i32, align 4
  store ptr %0, ptr %2, align 8, !tbaa !26
  %4 = load ptr, ptr %2, align 8
  call void @llvm.lifetime.start.p0(i64 4, ptr %3) #3
  %5 = getelementptr inbounds nuw %"class.std::__mutex_base", ptr %4, i32 0, i32 0
  %6 = call noundef i32 @_ZL20__gthread_mutex_lockP15pthread_mutex_t(ptr noundef %5)
  store i32 %6, ptr %3, align 4, !tbaa !11
  %7 = load i32, ptr %3, align 4, !tbaa !11
  %8 = icmp ne i32 %7, 0
  br i1 %8, label %9, label %11

9:                                                ; preds = %1
  %10 = load i32, ptr %3, align 4, !tbaa !11
  call void @_ZSt20__throw_system_errori(i32 noundef %10) #22
  unreachable

11:                                               ; preds = %1
  call void @llvm.lifetime.end.p0(i64 4, ptr %3) #3
  ret void
}

; Function Attrs: mustprogress nounwind uwtable
define linkonce_odr void @_ZNSt10lock_guardISt5mutexED2Ev(ptr noundef nonnull align 8 dereferenceable(8) %0) unnamed_addr #4 comdat align 2 personality ptr @__gxx_personality_v0 {
  %2 = alloca ptr, align 8
  store ptr %0, ptr %2, align 8, !tbaa !24
  %3 = load ptr, ptr %2, align 8
  %4 = getelementptr inbounds nuw %"class.std::lock_guard", ptr %3, i32 0, i32 0
  %5 = load ptr, ptr %4, align 8, !tbaa !28
  invoke void @_ZNSt5mutex6unlockEv(ptr noundef nonnull align 8 dereferenceable(40) %5)
          to label %6 unwind label %7

6:                                                ; preds = %1
  ret void

7:                                                ; preds = %1
  %8 = landingpad { ptr, i32 }
          catch ptr null
  %9 = extractvalue { ptr, i32 } %8, 0
  call void @__clang_call_terminate(ptr %9) #21
  unreachable
}

; Function Attrs: inlinehint mustprogress uwtable
define internal void @_ZL14gmx_sfree_implI8t_pstackEvPKcS2_iPT_(ptr noundef %0, ptr noundef %1, i32 noundef %2, ptr noundef %3) #7 {
  %5 = alloca ptr, align 8
  %6 = alloca ptr, align 8
  %7 = alloca i32, align 4
  %8 = alloca ptr, align 8
  store ptr %0, ptr %5, align 8, !tbaa !13
  store ptr %1, ptr %6, align 8, !tbaa !13
  store i32 %2, ptr %7, align 4, !tbaa !11
  store ptr %3, ptr %8, align 8, !tbaa !17
  %9 = load ptr, ptr %5, align 8, !tbaa !13
  %10 = load ptr, ptr %6, align 8, !tbaa !13
  %11 = load i32, ptr %7, align 4, !tbaa !11
  %12 = load ptr, ptr %8, align 8, !tbaa !17
  call void @_Z9save_freePKcS0_iPv(ptr noundef %9, ptr noundef %10, i32 noundef %11, ptr noundef %12)
  ret void
}

; Function Attrs: mustprogress uwtable
define linkonce_odr void @_ZNSt10lock_guardISt5mutexEC2ERS0_(ptr noundef nonnull align 8 dereferenceable(8) %0, ptr noundef nonnull align 8 dereferenceable(40) %1) unnamed_addr #6 comdat align 2 {
  %3 = alloca ptr, align 8
  %4 = alloca ptr, align 8
  store ptr %0, ptr %3, align 8, !tbaa !24
  store ptr %1, ptr %4, align 8, !tbaa !26
  %5 = load ptr, ptr %3, align 8
  %6 = getelementptr inbounds nuw %"class.std::lock_guard", ptr %5, i32 0, i32 0
  %7 = load ptr, ptr %4, align 8, !tbaa !26
  store ptr %7, ptr %6, align 8, !tbaa !26
  %8 = getelementptr inbounds nuw %"class.std::lock_guard", ptr %5, i32 0, i32 0
  %9 = load ptr, ptr %8, align 8, !tbaa !28
  call void @_ZNSt5mutex4lockEv(ptr noundef nonnull align 8 dereferenceable(40) %9)
  ret void
}

; Function Attrs: mustprogress uwtable
define noundef i32 @_Z11gmx_ffcloseP8_IO_FILE(ptr noundef %0) #6 personality ptr @__gxx_personality_v0 {
  %2 = alloca ptr, align 8
  %3 = alloca i32, align 4
  %4 = alloca %"class.std::lock_guard", align 8
  %5 = alloca ptr, align 8
  %6 = alloca ptr, align 8
  %7 = alloca i32, align 4
  %8 = alloca ptr, align 8
  store ptr %0, ptr %2, align 8, !tbaa !15
  call void @llvm.lifetime.start.p0(i64 4, ptr %3) #3
  store i32 0, ptr %3, align 4, !tbaa !11
  call void @llvm.lifetime.start.p0(i64 8, ptr %4) #3
  call void @_ZNSt10lock_guardISt5mutexEC2ERS0_(ptr noundef nonnull align 8 dereferenceable(8) %4, ptr noundef nonnull align 8 dereferenceable(40) @_ZL12pstack_mutex)
  call void @llvm.lifetime.start.p0(i64 8, ptr %5) #3
  %9 = load ptr, ptr @_ZL6pstack, align 8, !tbaa !17
  store ptr %9, ptr %5, align 8, !tbaa !17
  %10 = load ptr, ptr %5, align 8, !tbaa !17
  %11 = icmp eq ptr %10, null
  br i1 %11, label %12, label %24

12:                                               ; preds = %1
  %13 = load ptr, ptr %2, align 8, !tbaa !15
  %14 = icmp ne ptr %13, null
  br i1 %14, label %15, label %23

15:                                               ; preds = %12
  %16 = load ptr, ptr %2, align 8, !tbaa !15
  %17 = invoke i32 @fclose(ptr noundef %16)
          to label %18 unwind label %19

18:                                               ; preds = %15
  store i32 %17, ptr %3, align 4, !tbaa !11
  br label %23

19:                                               ; preds = %111, %83, %37, %33, %15
  %20 = landingpad { ptr, i32 }
          cleanup
  %21 = extractvalue { ptr, i32 } %20, 0
  store ptr %21, ptr %6, align 8
  %22 = extractvalue { ptr, i32 } %20, 1
  store i32 %22, ptr %7, align 4
  br label %120

23:                                               ; preds = %18, %12
  br label %118

24:                                               ; preds = %1
  %25 = load ptr, ptr %5, align 8, !tbaa !17
  %26 = getelementptr inbounds nuw %struct.t_pstack, ptr %25, i32 0, i32 0
  %27 = load ptr, ptr %26, align 8, !tbaa !19
  %28 = load ptr, ptr %2, align 8, !tbaa !15
  %29 = icmp eq ptr %27, %28
  br i1 %29, label %30, label %43

30:                                               ; preds = %24
  %31 = load ptr, ptr %2, align 8, !tbaa !15
  %32 = icmp ne ptr %31, null
  br i1 %32, label %33, label %37

33:                                               ; preds = %30
  %34 = load ptr, ptr %2, align 8, !tbaa !15
  %35 = invoke i32 @pclose(ptr noundef %34)
          to label %36 unwind label %19

36:                                               ; preds = %33
  store i32 %35, ptr %3, align 4, !tbaa !11
  br label %37

37:                                               ; preds = %36, %30
  %38 = load ptr, ptr @_ZL6pstack, align 8, !tbaa !17
  %39 = getelementptr inbounds nuw %struct.t_pstack, ptr %38, i32 0, i32 1
  %40 = load ptr, ptr %39, align 8, !tbaa !21
  store ptr %40, ptr @_ZL6pstack, align 8, !tbaa !17
  %41 = load ptr, ptr %5, align 8, !tbaa !17
  invoke void @_ZL14gmx_sfree_implI8t_pstackEvPKcS2_iPT_(ptr noundef @.str.1, ptr noundef @.str.2, i32 noundef 211, ptr noundef %41)
          to label %42 unwind label %19

42:                                               ; preds = %37
  br label %117

43:                                               ; preds = %24
  br label %44

44:                                               ; preds = %59, %43
  %45 = load ptr, ptr %5, align 8, !tbaa !17
  %46 = getelementptr inbounds nuw %struct.t_pstack, ptr %45, i32 0, i32 1
  %47 = load ptr, ptr %46, align 8, !tbaa !21
  %48 = icmp ne ptr %47, null
  br i1 %48, label %49, label %57

49:                                               ; preds = %44
  %50 = load ptr, ptr %5, align 8, !tbaa !17
  %51 = getelementptr inbounds nuw %struct.t_pstack, ptr %50, i32 0, i32 1
  %52 = load ptr, ptr %51, align 8, !tbaa !21
  %53 = getelementptr inbounds nuw %struct.t_pstack, ptr %52, i32 0, i32 0
  %54 = load ptr, ptr %53, align 8, !tbaa !19
  %55 = load ptr, ptr %2, align 8, !tbaa !15
  %56 = icmp ne ptr %54, %55
  br label %57

57:                                               ; preds = %49, %44
  %58 = phi i1 [ false, %44 ], [ %56, %49 ]
  br i1 %58, label %59, label %63

59:                                               ; preds = %57
  %60 = load ptr, ptr %5, align 8, !tbaa !17
  %61 = getelementptr inbounds nuw %struct.t_pstack, ptr %60, i32 0, i32 1
  %62 = load ptr, ptr %61, align 8, !tbaa !21
  store ptr %62, ptr %5, align 8, !tbaa !17
  br label %44, !llvm.loop !22

63:                                               ; preds = %57
  %64 = load ptr, ptr %5, align 8, !tbaa !17
  %65 = getelementptr inbounds nuw %struct.t_pstack, ptr %64, i32 0, i32 1
  %66 = load ptr, ptr %65, align 8, !tbaa !21
  %67 = icmp ne ptr %66, null
  br i1 %67, label %68, label %108

68:                                               ; preds = %63
  %69 = load ptr, ptr %5, align 8, !tbaa !17
  %70 = getelementptr inbounds nuw %struct.t_pstack, ptr %69, i32 0, i32 1
  %71 = load ptr, ptr %70, align 8, !tbaa !21
  %72 = getelementptr inbounds nuw %struct.t_pstack, ptr %71, i32 0, i32 0
  %73 = load ptr, ptr %72, align 8, !tbaa !19
  %74 = load ptr, ptr %2, align 8, !tbaa !15
  %75 = icmp eq ptr %73, %74
  br i1 %75, label %76, label %108

76:                                               ; preds = %68
  %77 = load ptr, ptr %5, align 8, !tbaa !17
  %78 = getelementptr inbounds nuw %struct.t_pstack, ptr %77, i32 0, i32 1
  %79 = load ptr, ptr %78, align 8, !tbaa !21
  %80 = getelementptr inbounds nuw %struct.t_pstack, ptr %79, i32 0, i32 0
  %81 = load ptr, ptr %80, align 8, !tbaa !19
  %82 = icmp ne ptr %81, null
  br i1 %82, label %83, label %91

83:                                               ; preds = %76
  %84 = load ptr, ptr %5, align 8, !tbaa !17
  %85 = getelementptr inbounds nuw %struct.t_pstack, ptr %84, i32 0, i32 1
  %86 = load ptr, ptr %85, align 8, !tbaa !21
  %87 = getelementptr inbounds nuw %struct.t_pstack, ptr %86, i32 0, i32 0
  %88 = load ptr, ptr %87, align 8, !tbaa !19
  %89 = invoke i32 @pclose(ptr noundef %88)
          to label %90 unwind label %19

90:                                               ; preds = %83
  store i32 %89, ptr %3, align 4, !tbaa !11
  br label %91

91:                                               ; preds = %90, %76
  call void @llvm.lifetime.start.p0(i64 8, ptr %8) #3
  %92 = load ptr, ptr %5, align 8, !tbaa !17
  %93 = getelementptr inbounds nuw %struct.t_pstack, ptr %92, i32 0, i32 1
  %94 = load ptr, ptr %93, align 8, !tbaa !21
  store ptr %94, ptr %8, align 8, !tbaa !17
  %95 = load ptr, ptr %5, align 8, !tbaa !17
  %96 = getelementptr inbounds nuw %struct.t_pstack, ptr %95, i32 0, i32 1
  %97 = load ptr, ptr %96, align 8, !tbaa !21
  %98 = getelementptr inbounds nuw %struct.t_pstack, ptr %97, i32 0, i32 1
  %99 = load ptr, ptr %98, align 8, !tbaa !21
  %100 = load ptr, ptr %5, align 8, !tbaa !17
  %101 = getelementptr inbounds nuw %struct.t_pstack, ptr %100, i32 0, i32 1
  store ptr %99, ptr %101, align 8, !tbaa !21
  %102 = load ptr, ptr %8, align 8, !tbaa !17
  invoke void @_ZL14gmx_sfree_implI8t_pstackEvPKcS2_iPT_(ptr noundef @.str.3, ptr noundef @.str.2, i32 noundef 227, ptr noundef %102)
          to label %103 unwind label %104

103:                                              ; preds = %91
  call void @llvm.lifetime.end.p0(i64 8, ptr %8) #3
  br label %116

104:                                              ; preds = %91
  %105 = landingpad { ptr, i32 }
          cleanup
  %106 = extractvalue { ptr, i32 } %105, 0
  store ptr %106, ptr %6, align 8
  %107 = extractvalue { ptr, i32 } %105, 1
  store i32 %107, ptr %7, align 4
  call void @llvm.lifetime.end.p0(i64 8, ptr %8) #3
  br label %120

108:                                              ; preds = %68, %63
  %109 = load ptr, ptr %2, align 8, !tbaa !15
  %110 = icmp ne ptr %109, null
  br i1 %110, label %111, label %115

111:                                              ; preds = %108
  %112 = load ptr, ptr %2, align 8, !tbaa !15
  %113 = invoke i32 @fclose(ptr noundef %112)
          to label %114 unwind label %19

114:                                              ; preds = %111
  store i32 %113, ptr %3, align 4, !tbaa !11
  br label %115

115:                                              ; preds = %114, %108
  br label %116

116:                                              ; preds = %115, %103
  br label %117

117:                                              ; preds = %116, %42
  br label %118

118:                                              ; preds = %117, %23
  %119 = load i32, ptr %3, align 4, !tbaa !11
  call void @llvm.lifetime.end.p0(i64 8, ptr %5) #3
  call void @_ZNSt10lock_guardISt5mutexED2Ev(ptr noundef nonnull align 8 dereferenceable(8) %4) #3
  call void @llvm.lifetime.end.p0(i64 8, ptr %4) #3
  call void @llvm.lifetime.end.p0(i64 4, ptr %3) #3
  ret i32 %119

120:                                              ; preds = %104, %19
  call void @llvm.lifetime.end.p0(i64 8, ptr %5) #3
  call void @_ZNSt10lock_guardISt5mutexED2Ev(ptr noundef nonnull align 8 dereferenceable(8) %4) #3
  call void @llvm.lifetime.end.p0(i64 8, ptr %4) #3
  call void @llvm.lifetime.end.p0(i64 4, ptr %3) #3
  br label %121

121:                                              ; preds = %120
  %122 = load ptr, ptr %6, align 8
  %123 = load i32, ptr %7, align 4
  %124 = insertvalue { ptr, i32 } poison, ptr %122, 0
  %125 = insertvalue { ptr, i32 } %124, i32 %123, 1
  resume { ptr, i32 } %125
}