; Function Attrs: mustprogress uwtable
define noundef i32 @_Z11gmx_ffcloseP8_IO_FILE(ptr noundef %0) local_unnamed_addr #9 personality ptr @__gxx_personality_v0 {
  %2 = tail call noundef i32 @pthread_mutex_lock(ptr noundef nonnull align 8 dereferenceable(40) @_ZL12pstack_mutex) #30
  %.not.i.i = icmp eq i32 %2, 0
  br i1 %.not.i.i, label %_ZNSt10lock_guardISt5mutexEC2ERS0_.exit, label %3

3:                                                ; preds = %1
  tail call void @_ZSt20__throw_system_errori(i32 noundef %2) #31
  unreachable

_ZNSt10lock_guardISt5mutexEC2ERS0_.exit:          ; preds = %1
  %4 = load ptr, ptr @_ZL6pstack, align 8, !tbaa !11
  %5 = icmp eq ptr %4, null
  br i1 %5, label %6, label %9

6:                                                ; preds = %_ZNSt10lock_guardISt5mutexEC2ERS0_.exit
  %.not40 = icmp eq ptr %0, null
  br i1 %.not40, label %_ZL14gmx_sfree_implI8t_pstackEvPKcS2_iPT_.exit, label %_ZL14gmx_sfree_implI8t_pstackEvPKcS2_iPT_.exit.sink.split

7:                                                ; preds = %15
  %8 = landingpad { ptr, i32 }
          cleanup
  br label %34

9:                                                ; preds = %_ZNSt10lock_guardISt5mutexEC2ERS0_.exit
  %10 = load ptr, ptr %4, align 8, !tbaa !13
  %11 = icmp eq ptr %10, %0
  br i1 %11, label %12, label %.preheader

12:                                               ; preds = %9
  %.not38 = icmp eq ptr %0, null
  br i1 %.not38, label %15, label %13

13:                                               ; preds = %12
  %14 = tail call i32 @pclose(ptr noundef nonnull %0)
  %.pre48 = load ptr, ptr @_ZL6pstack, align 8, !tbaa !11
  br label %15

15:                                               ; preds = %13, %12
  %16 = phi ptr [ %.pre48, %13 ], [ %4, %12 ]
  %.1 = phi i32 [ %14, %13 ], [ 0, %12 ]
  %17 = getelementptr inbounds nuw i8, ptr %16, i64 8
  %18 = load ptr, ptr %17, align 8, !tbaa !16
  store ptr %18, ptr @_ZL6pstack, align 8, !tbaa !11
  invoke void @_Z9save_freePKcS0_iPv(ptr noundef nonnull @.str.1, ptr noundef nonnull @.str.2, i32 noundef 211, ptr noundef nonnull %4)
          to label %_ZL14gmx_sfree_implI8t_pstackEvPKcS2_iPT_.exit unwind label %7

.preheader:                                       ; preds = %9, %21
  %.027 = phi ptr [ %20, %21 ], [ %4, %9 ]
  %19 = getelementptr inbounds nuw i8, ptr %.027, i64 8
  %20 = load ptr, ptr %19, align 8, !tbaa !16
  %.not = icmp eq ptr %20, null
  br i1 %.not, label %.critedge.thread, label %21

21:                                               ; preds = %.preheader
  %22 = load ptr, ptr %20, align 8, !tbaa !13
  %.not34 = icmp eq ptr %22, %0
  br i1 %.not34, label %.critedge, label %.preheader, !llvm.loop !17

.critedge:                                        ; preds = %21
  %23 = getelementptr inbounds nuw i8, ptr %.027, i64 8
  %.not37 = icmp eq ptr %0, null
  br i1 %.not37, label %26, label %24

24:                                               ; preds = %.critedge
  %25 = tail call i32 @pclose(ptr noundef nonnull %22)
  %.pre = load ptr, ptr %23, align 8, !tbaa !16
  br label %26

26:                                               ; preds = %24, %.critedge
  %27 = phi ptr [ %.pre, %24 ], [ %20, %.critedge ]
  %.2 = phi i32 [ %25, %24 ], [ 0, %.critedge ]
  %28 = getelementptr inbounds nuw i8, ptr %27, i64 8
  %29 = load ptr, ptr %28, align 8, !tbaa !16
  store ptr %29, ptr %23, align 8, !tbaa !16
  invoke void @_Z9save_freePKcS0_iPv(ptr noundef nonnull @.str.3, ptr noundef nonnull @.str.2, i32 noundef 227, ptr noundef nonnull %27)
          to label %_ZL14gmx_sfree_implI8t_pstackEvPKcS2_iPT_.exit unwind label %30

30:                                               ; preds = %26
  %31 = landingpad { ptr, i32 }
          cleanup
  br label %34

.critedge.thread:                                 ; preds = %.preheader
  %.not36 = icmp eq ptr %0, null
  br i1 %.not36, label %_ZL14gmx_sfree_implI8t_pstackEvPKcS2_iPT_.exit, label %_ZL14gmx_sfree_implI8t_pstackEvPKcS2_iPT_.exit.sink.split

_ZL14gmx_sfree_implI8t_pstackEvPKcS2_iPT_.exit.sink.split: ; preds = %.critedge.thread, %6
  %32 = tail call i32 @fclose(ptr noundef nonnull %0)
  br label %_ZL14gmx_sfree_implI8t_pstackEvPKcS2_iPT_.exit

_ZL14gmx_sfree_implI8t_pstackEvPKcS2_iPT_.exit:   ; preds = %_ZL14gmx_sfree_implI8t_pstackEvPKcS2_iPT_.exit.sink.split, %26, %15, %.critedge.thread, %6
  %.0 = phi i32 [ 0, %6 ], [ 0, %.critedge.thread ], [ %.1, %15 ], [ %.2, %26 ], [ %32, %_ZL14gmx_sfree_implI8t_pstackEvPKcS2_iPT_.exit.sink.split ]
  %33 = tail call noundef i32 @pthread_mutex_unlock(ptr noundef nonnull align 8 dereferenceable(40) @_ZL12pstack_mutex) #30
  ret i32 %.0

34:                                               ; preds = %30, %7
  %.pn = phi { ptr, i32 } [ %8, %7 ], [ %31, %30 ]
  %35 = tail call noundef i32 @pthread_mutex_unlock(ptr noundef nonnull align 8 dereferenceable(40) @_ZL12pstack_mutex) #30
  resume { ptr, i32 } %.pn
}